; Function Attrs: mustprogress uwtable
define hidden void @_ZN11cmd_context18display_assertionsEv(ptr noundef nonnull align 8 dereferenceable(872) %this) local_unnamed_addr #4 align 2 personality ptr @__gxx_personality_v0 {
entry:
  %m_interactive_mode = getelementptr inbounds i8, ptr %this, i64 256
  %0 = load i8, ptr %m_interactive_mode, align 8
  %1 = and i8 %0, 1
  %tobool.not = icmp eq i8 %1, 0
  br i1 %tobool.not, label %if.then, label %if.end

if.then:                                          ; preds = %entry
  %exception = tail call ptr @__cxa_allocate_exception(i64 48) #25
  invoke void @_ZN13cmd_exceptionC2EPKc(ptr noundef nonnull align 8 dereferenceable(48) %exception, ptr noundef nonnull @.str.82)
          to label %invoke.cont unwind label %lpad

invoke.cont:                                      ; preds = %if.then
  tail call void @__cxa_throw(ptr nonnull %exception, ptr nonnull @_ZTI13cmd_exception, ptr nonnull @_ZN13cmd_exceptionD2Ev) #27
  unreachable

lpad:                                             ; preds = %if.then
  %2 = landingpad { ptr, i32 }
          cleanup
  tail call void @__cxa_free_exception(ptr %exception) #25
  resume { ptr, i32 } %2

if.end:                                           ; preds = %entry
  %vtable = load ptr, ptr %this, align 8
  %vfn = getelementptr inbounds i8, ptr %vtable, i64 40
  %3 = load ptr, ptr %vfn, align 8
  %call = tail call noundef nonnull align 8 dereferenceable(8) ptr %3(ptr noundef nonnull align 8 dereferenceable(872) %this)
  %call2 = tail call noundef nonnull align 8 dereferenceable(8) ptr @_ZStlsISt11char_traitsIcEERSt13basic_ostreamIcT_ES5_PKc(ptr noundef nonnull align 8 dereferenceable(8) %call, ptr noundef nonnull @.str.64)
  %m_assertion_strings = getelementptr inbounds i8, ptr %this, i64 760
  %4 = load ptr, ptr %m_assertion_strings, align 8
  %_M_finish.i = getelementptr inbounds i8, ptr %this, i64 768
  %5 = load ptr, ptr %_M_finish.i, align 8
  %cmp.i.not4 = icmp eq ptr %4, %5
  br i1 %cmp.i.not4, label %for.end, label %for.body

for.body:                                         ; preds = %if.end, %if.end14
  %first.06 = phi i8 [ %first.1, %if.end14 ], [ 1, %if.end ]
  %__begin1.sroa.0.05 = phi ptr [ %incdec.ptr.i, %if.end14 ], [ %4, %if.end ]
  %6 = and i8 %first.06, 1
  %tobool8.not = icmp eq i8 %6, 0
  br i1 %tobool8.not, label %if.else, label %if.end14

if.else:                                          ; preds = %for.body
  %vtable10 = load ptr, ptr %this, align 8
  %vfn11 = getelementptr inbounds i8, ptr %vtable10, i64 40
  %7 = load ptr, ptr %vfn11, align 8
  %call12 = tail call noundef nonnull align 8 dereferenceable(8) ptr %7(ptr noundef nonnull align 8 dereferenceable(872) %this)
  %call13 = tail call noundef nonnull align 8 dereferenceable(8) ptr @_ZStlsISt11char_traitsIcEERSt13basic_ostreamIcT_ES5_PKc(ptr noundef nonnull align 8 dereferenceable(8) %call12, ptr noundef nonnull @.str.83)
  br label %if.end14

if.end14:                                         ; preds = %for.body, %if.else
  %first.1 = phi i8 [ %first.06, %if.else ], [ 0, %for.body ]
  %vtable15 = load ptr, ptr %this, align 8
  %vfn16 = getelementptr inbounds i8, ptr %vtable15, i64 40
  %8 = load ptr, ptr %vfn16, align 8
  %call17 = tail call noundef nonnull align 8 dereferenceable(8) ptr %8(ptr noundef nonnull align 8 dereferenceable(872) %this)
  %call18 = tail call noundef nonnull align 8 dereferenceable(8) ptr @_ZStlsIcSt11char_traitsIcESaIcEERSt13basic_ostreamIT_T0_ES7_RKNSt7__cxx1112basic_stringIS4_S5_T1_EE(ptr noundef nonnull align 8 dereferenceable(8) %call17, ptr noundef nonnull align 8 dereferenceable(32) %__begin1.sroa.0.05)
  %incdec.ptr.i = getelementptr inbounds i8, ptr %__begin1.sroa.0.05, i64 32
  %cmp.i.not = icmp eq ptr %incdec.ptr.i, %5
  br i1 %cmp.i.not, label %for.end, label %for.body

for.end:                                          ; preds = %if.end14, %if.end
  %vtable20 = load ptr, ptr %this, align 8
  %vfn21 = getelementptr inbounds i8, ptr %vtable20, i64 40
  %9 = load ptr, ptr %vfn21, align 8
  %call22 = tail call noundef nonnull align 8 dereferenceable(8) ptr %9(ptr noundef nonnull align 8 dereferenceable(872) %this)
  %call23 = tail call noundef nonnull align 8 dereferenceable(8) ptr @_ZStlsISt11char_traitsIcEERSt13basic_ostreamIcT_ES5_PKc(ptr noundef nonnull align 8 dereferenceable(8) %call22, ptr noundef nonnull @.str.65)
  %call24 = tail call noundef nonnull align 8 dereferenceable(8) ptr @_ZNSolsEPFRSoS_E(ptr noundef nonnull align 8 dereferenceable(8) %call23, ptr noundef nonnull @_ZSt4endlIcSt11char_traitsIcEERSt13basic_ostreamIT_T0_ES6_)
  ret void
}